target datalayout = "e-m:e-p270:32:32-p271:32:32-p272:64:64-i64:64-i128:128-f80:128-n8:16:32:64-S128"
target triple = "x86_64-pc-linux-gnu"

%struct.pmix_tsd_key_value = type { i32, ptr }

@pmix_tsd_key_values = internal global ptr null, align 8
@pmix_tsd_key_values_count = internal global i32 0, align 4

; Function Attrs: inlinehint nounwind uwtable
define internal i32 @pmix_tsd_setspecific(i32 noundef %0, ptr noundef %1) #5 {
  %3 = alloca i32, align 4
  %4 = alloca ptr, align 8
  store i32 %0, ptr %3, align 4, !tbaa !16
  store ptr %1, ptr %4, align 8, !tbaa !17
  %5 = load i32, ptr %3, align 4, !tbaa !16
  %6 = load ptr, ptr %4, align 8, !tbaa !17
  %7 = call i32 @pthread_setspecific(i32 noundef %5, ptr noundef %6) #9
  ret i32 %7
}

; Function Attrs: inlinehint nounwind uwtable
define internal i32 @pmix_tsd_getspecific(i32 noundef %0, ptr noundef %1) #5 {
  %3 = alloca i32, align 4
  %4 = alloca ptr, align 8
  store i32 %0, ptr %3, align 4, !tbaa !16
  store ptr %1, ptr %4, align 8, !tbaa !17
  %5 = load i32, ptr %3, align 4, !tbaa !16
  %6 = call ptr @pthread_getspecific(i32 noundef %5) #9
  %7 = load ptr, ptr %4, align 8, !tbaa !17
  store ptr %6, ptr %7, align 8, !tbaa !17
  ret i32 0
}

; Function Attrs: nounwind uwtable
define i32 @pmix_tsd_keys_destruct() #0 {
  %1 = alloca i32, align 4
  %2 = alloca ptr, align 8
  call void @llvm.lifetime.start.p0(i64 4, ptr %1) #9
  call void @llvm.lifetime.start.p0(i64 8, ptr %2) #9
  store i32 0, ptr %1, align 4, !tbaa !16
  br label %3

3:                                                ; preds = %41, %0
  %4 = load i32, ptr %1, align 4, !tbaa !16
  %5 = load i32, ptr @pmix_tsd_key_values_count, align 4, !tbaa !16
  %6 = icmp slt i32 %4, %5
  br i1 %6, label %7, label %44

7:                                                ; preds = %3
  %8 = load ptr, ptr @pmix_tsd_key_values, align 8, !tbaa !40
  %9 = load i32, ptr %1, align 4, !tbaa !16
  %10 = sext i32 %9 to i64
  %11 = getelementptr inbounds %struct.pmix_tsd_key_value, ptr %8, i64 %10
  %12 = getelementptr inbounds nuw %struct.pmix_tsd_key_value, ptr %11, i32 0, i32 0
  %13 = load i32, ptr %12, align 8, !tbaa !42
  %14 = call i32 @pmix_tsd_getspecific(i32 noundef %13, ptr noundef %2)
  %15 = icmp eq i32 0, %14
  br i1 %15, label %16, label %40

16:                                               ; preds = %7
  %17 = load ptr, ptr @pmix_tsd_key_values, align 8, !tbaa !40
  %18 = load i32, ptr %1, align 4, !tbaa !16
  %19 = sext i32 %18 to i64
  %20 = getelementptr inbounds %struct.pmix_tsd_key_value, ptr %17, i64 %19
  %21 = getelementptr inbounds nuw %struct.pmix_tsd_key_value, ptr %20, i32 0, i32 1
  %22 = load ptr, ptr %21, align 8, !tbaa !44
  %23 = icmp ne ptr null, %22
  br i1 %23, label %24, label %39

24:                                               ; preds = %16
  %25 = load ptr, ptr @pmix_tsd_key_values, align 8, !tbaa !40
  %26 = load i32, ptr %1, align 4, !tbaa !16
  %27 = sext i32 %26 to i64
  %28 = getelementptr inbounds %struct.pmix_tsd_key_value, ptr %25, i64 %27
  %29 = getelementptr inbounds nuw %struct.pmix_tsd_key_value, ptr %28, i32 0, i32 1
  %30 = load ptr, ptr %29, align 8, !tbaa !44
  %31 = load ptr, ptr %2, align 8, !tbaa !17
  call void %30(ptr noundef %31)
  %32 = load ptr, ptr @pmix_tsd_key_values, align 8, !tbaa !40
  %33 = load i32, ptr %1, align 4, !tbaa !16
  %34 = sext i32 %33 to i64
  %35 = getelementptr inbounds %struct.pmix_tsd_key_value, ptr %32, i64 %34
  %36 = getelementptr inbounds nuw %struct.pmix_tsd_key_value, ptr %35, i32 0, i32 0
  %37 = load i32, ptr %36, align 8, !tbaa !42
  %38 = call i32 @pmix_tsd_setspecific(i32 noundef %37, ptr noundef null)
  br label %39

39:                                               ; preds = %24, %16
  br label %40

40:                                               ; preds = %39, %7
  br label %41

41:                                               ; preds = %40
  %42 = load i32, ptr %1, align 4, !tbaa !16
  %43 = add nsw i32 %42, 1
  store i32 %43, ptr %1, align 4, !tbaa !16
  br label %3, !llvm.loop !45

44:                                               ; preds = %3
  %45 = load i32, ptr @pmix_tsd_key_values_count, align 4, !tbaa !16
  %46 = icmp slt i32 0, %45
  br i1 %46, label %47, label %49

47:                                               ; preds = %44
  %48 = load ptr, ptr @pmix_tsd_key_values, align 8, !tbaa !40
  call void @free(ptr noundef %48) #9
  store i32 0, ptr @pmix_tsd_key_values_count, align 4, !tbaa !16
  br label %49

49:                                               ; preds = %47, %44
  call void @llvm.lifetime.end.p0(i64 8, ptr %2) #9
  call void @llvm.lifetime.end.p0(i64 4, ptr %1) #9
  ret i32 0
}