; Function Attrs: nounwind uwtable
define noundef i32 @pmix_tsd_keys_destruct() local_unnamed_addr #1 {
  %1 = load i32, ptr @pmix_tsd_key_values_count, align 4, !tbaa !17
  %2 = icmp sgt i32 %1, 0
  br i1 %2, label %.lr.ph.preheader, label %._crit_edge.thread

.lr.ph.preheader:                                 ; preds = %0
  %.pre11 = load ptr, ptr @pmix_tsd_key_values, align 8, !tbaa !26
  br label %.lr.ph

.lr.ph:                                           ; preds = %.lr.ph.preheader, %15
  %3 = phi ptr [ %.pre11, %.lr.ph.preheader ], [ %16, %15 ]
  %indvars.iv = phi i64 [ 0, %.lr.ph.preheader ], [ %indvars.iv.next, %15 ]
  %4 = getelementptr inbounds nuw %struct.pmix_tsd_key_value, ptr %3, i64 %indvars.iv
  %5 = load i32, ptr %4, align 8, !tbaa !28
  %6 = tail call ptr @pthread_getspecific(i32 noundef %5) #11
  %7 = load ptr, ptr @pmix_tsd_key_values, align 8, !tbaa !26
  %8 = getelementptr inbounds nuw %struct.pmix_tsd_key_value, ptr %7, i64 %indvars.iv, i32 1
  %9 = load ptr, ptr %8, align 8, !tbaa !30
  %.not = icmp eq ptr %9, null
  br i1 %.not, label %15, label %10

10:                                               ; preds = %.lr.ph
  tail call void %9(ptr noundef %6) #11
  %11 = load ptr, ptr @pmix_tsd_key_values, align 8, !tbaa !26
  %12 = getelementptr inbounds nuw %struct.pmix_tsd_key_value, ptr %11, i64 %indvars.iv
  %13 = load i32, ptr %12, align 8, !tbaa !28
  %14 = tail call i32 @pthread_setspecific(i32 noundef %13, ptr noundef null) #11
  %.pre = load ptr, ptr @pmix_tsd_key_values, align 8, !tbaa !26
  br label %15

15:                                               ; preds = %10, %.lr.ph
  %16 = phi ptr [ %.pre, %10 ], [ %7, %.lr.ph ]
  %indvars.iv.next = add nuw nsw i64 %indvars.iv, 1
  %17 = load i32, ptr @pmix_tsd_key_values_count, align 4, !tbaa !17
  %18 = sext i32 %17 to i64
  %19 = icmp slt i64 %indvars.iv.next, %18
  br i1 %19, label %.lr.ph, label %._crit_edge, !llvm.loop !31

._crit_edge:                                      ; preds = %15
  %20 = icmp sgt i32 %17, 0
  br i1 %20, label %21, label %._crit_edge.thread

21:                                               ; preds = %._crit_edge
  %22 = load ptr, ptr @pmix_tsd_key_values, align 8, !tbaa !26
  tail call void @free(ptr noundef %22) #11
  store i32 0, ptr @pmix_tsd_key_values_count, align 4, !tbaa !17
  br label %._crit_edge.thread

._crit_edge.thread:                               ; preds = %0, %21, %._crit_edge
  ret i32 0
}